target datalayout = "e-m:e-p270:32:32-p271:32:32-p272:64:64-i64:64-i128:128-f80:128-n8:16:32:64-S128"
target triple = "x86_64-pc-linux-gnu"

%struct.evthread_lock_callbacks = type { i32, i32, ptr, ptr, ptr, ptr }
%struct.bufferevent_private = type { %struct.bufferevent, ptr, i8, i16, i16, i16, i32, i32, %struct.event_callback, i32, i32, ptr, i64, i64, ptr, %union.anon.7, ptr }
%struct.bufferevent = type { ptr, ptr, %struct.event, %struct.event, ptr, ptr, %struct.event_watermark, %struct.event_watermark, ptr, ptr, ptr, ptr, %struct.timeval, %struct.timeval, i16 }
%struct.event = type { %struct.event_callback, %union.anon.0, i32, i16, i16, ptr, %union.anon.2, %struct.timeval }
%union.anon.0 = type { %struct.anon.1 }
%struct.anon.1 = type { ptr, ptr }
%union.anon.2 = type { %struct.anon.3 }
%struct.anon.3 = type { %struct.anon.4, %struct.timeval }
%struct.anon.4 = type { ptr, ptr }
%struct.event_watermark = type { i64, i64 }
%struct.timeval = type { i64, i64 }
%struct.event_callback = type { %struct.anon, i16, i8, i8, %union.anon, ptr }
%struct.anon = type { ptr, ptr }
%union.anon = type { ptr }
%union.anon.7 = type { %struct.sockaddr_in6 }
%struct.sockaddr_in6 = type { i16, i16, i32, %struct.in6_addr, i32 }
%struct.in6_addr = type { %union.anon.8 }
%union.anon.8 = type { [4 x i32] }
%struct.bufferevent_ops = type { ptr, i64, ptr, ptr, ptr, ptr, ptr, ptr, ptr }

@evthread_lock_fns_ = external global %struct.evthread_lock_callbacks, align 8

; Function Attrs: nounwind uwtable
define hidden void @bufferevent_suspend_write_(ptr noundef %0, i16 noundef zeroext %1) #0 {
  %3 = alloca ptr, align 8
  %4 = alloca i16, align 2
  %5 = alloca ptr, align 8
  %6 = alloca ptr, align 8
  %7 = alloca ptr, align 8
  store ptr %0, ptr %3, align 8
  store i16 %1, ptr %4, align 2
  call void @llvm.lifetime.start.p0(i64 8, ptr %5) #7
  %8 = load ptr, ptr %3, align 8
  %9 = getelementptr inbounds i8, ptr %8, i64 0
  store ptr %9, ptr %5, align 8
  br label %10

10:                                               ; preds = %2
  call void @llvm.lifetime.start.p0(i64 8, ptr %6) #7
  %11 = load ptr, ptr %3, align 8
  %12 = getelementptr inbounds i8, ptr %11, i64 0
  store ptr %12, ptr %6, align 8
  br label %13

13:                                               ; preds = %10
  %14 = load ptr, ptr %6, align 8
  %15 = getelementptr inbounds nuw %struct.bufferevent_private, ptr %14, i32 0, i32 11
  %16 = load ptr, ptr %15, align 8
  %17 = icmp ne ptr %16, null
  br i1 %17, label %18, label %24

18:                                               ; preds = %13
  %19 = load ptr, ptr getelementptr inbounds nuw (%struct.evthread_lock_callbacks, ptr @evthread_lock_fns_, i32 0, i32 4), align 8
  %20 = load ptr, ptr %6, align 8
  %21 = getelementptr inbounds nuw %struct.bufferevent_private, ptr %20, i32 0, i32 11
  %22 = load ptr, ptr %21, align 8
  %23 = call i32 %19(i32 noundef 0, ptr noundef %22)
  br label %24

24:                                               ; preds = %18, %13
  br label %25

25:                                               ; preds = %24
  br label %26

26:                                               ; preds = %25
  call void @llvm.lifetime.end.p0(i64 8, ptr %6) #7
  br label %27

27:                                               ; preds = %26
  br label %28

28:                                               ; preds = %27
  %29 = load ptr, ptr %5, align 8
  %30 = getelementptr inbounds nuw %struct.bufferevent_private, ptr %29, i32 0, i32 5
  %31 = load i16, ptr %30, align 2
  %32 = icmp ne i16 %31, 0
  br i1 %32, label %41, label %33

33:                                               ; preds = %28
  %34 = load ptr, ptr %3, align 8
  %35 = getelementptr inbounds nuw %struct.bufferevent, ptr %34, i32 0, i32 1
  %36 = load ptr, ptr %35, align 8
  %37 = getelementptr inbounds nuw %struct.bufferevent_ops, ptr %36, i32 0, i32 3
  %38 = load ptr, ptr %37, align 8
  %39 = load ptr, ptr %3, align 8
  %40 = call i32 %38(ptr noundef %39, i16 noundef signext 4)
  br label %41

41:                                               ; preds = %33, %28
  %42 = load i16, ptr %4, align 2
  %43 = zext i16 %42 to i32
  %44 = load ptr, ptr %5, align 8
  %45 = getelementptr inbounds nuw %struct.bufferevent_private, ptr %44, i32 0, i32 5
  %46 = load i16, ptr %45, align 2
  %47 = zext i16 %46 to i32
  %48 = or i32 %47, %43
  %49 = trunc i32 %48 to i16
  store i16 %49, ptr %45, align 2
  br label %50

50:                                               ; preds = %41
  call void @llvm.lifetime.start.p0(i64 8, ptr %7) #7
  %51 = load ptr, ptr %3, align 8
  %52 = getelementptr inbounds i8, ptr %51, i64 0
  store ptr %52, ptr %7, align 8
  br label %53

53:                                               ; preds = %50
  %54 = load ptr, ptr %7, align 8
  %55 = getelementptr inbounds nuw %struct.bufferevent_private, ptr %54, i32 0, i32 11
  %56 = load ptr, ptr %55, align 8
  %57 = icmp ne ptr %56, null
  br i1 %57, label %58, label %64

58:                                               ; preds = %53
  %59 = load ptr, ptr getelementptr inbounds nuw (%struct.evthread_lock_callbacks, ptr @evthread_lock_fns_, i32 0, i32 5), align 8
  %60 = load ptr, ptr %7, align 8
  %61 = getelementptr inbounds nuw %struct.bufferevent_private, ptr %60, i32 0, i32 11
  %62 = load ptr, ptr %61, align 8
  %63 = call i32 %59(i32 noundef 0, ptr noundef %62)
  br label %64

64:                                               ; preds = %58, %53
  br label %65

65:                                               ; preds = %64
  br label %66

66:                                               ; preds = %65
  call void @llvm.lifetime.end.p0(i64 8, ptr %7) #7
  br label %67

67:                                               ; preds = %66
  br label %68

68:                                               ; preds = %67
  call void @llvm.lifetime.end.p0(i64 8, ptr %5) #7
  ret void
}