; Function Attrs: nounwind uwtable
define hidden void @bufferevent_suspend_write_(ptr noundef %0, i16 noundef zeroext %1) local_unnamed_addr #0 {
  %3 = getelementptr inbounds nuw i8, ptr %0, i64 448
  %4 = load ptr, ptr %3, align 8
  %.not = icmp eq ptr %4, null
  br i1 %.not, label %8, label %5

5:                                                ; preds = %2
  %6 = load ptr, ptr getelementptr inbounds nuw (i8, ptr @evthread_lock_fns_, i64 24), align 8
  %7 = tail call i32 %6(i32 noundef 0, ptr noundef nonnull %4) #7
  br label %8

8:                                                ; preds = %5, %2
  %9 = getelementptr inbounds nuw i8, ptr %0, i64 390
  %10 = load i16, ptr %9, align 2
  %.not12 = icmp eq i16 %10, 0
  br i1 %.not12, label %11, label %17

11:                                               ; preds = %8
  %12 = getelementptr inbounds nuw i8, ptr %0, i64 8
  %13 = load ptr, ptr %12, align 8
  %14 = getelementptr inbounds nuw i8, ptr %13, i64 24
  %15 = load ptr, ptr %14, align 8
  %16 = tail call i32 %15(ptr noundef nonnull %0, i16 noundef signext 4) #7
  %.pre = load i16, ptr %9, align 2
  br label %17

17:                                               ; preds = %11, %8
  %18 = phi i16 [ %.pre, %11 ], [ %10, %8 ]
  %19 = or i16 %18, %1
  store i16 %19, ptr %9, align 2
  %20 = load ptr, ptr %3, align 8
  %.not13 = icmp eq ptr %20, null
  br i1 %.not13, label %24, label %21

21:                                               ; preds = %17
  %22 = load ptr, ptr getelementptr inbounds nuw (i8, ptr @evthread_lock_fns_, i64 32), align 8
  %23 = tail call i32 %22(i32 noundef 0, ptr noundef nonnull %20) #7
  br label %24

24:                                               ; preds = %21, %17
  ret void
}